; Function Attrs: mustprogress uwtable
define void @_ZN3net30QuicMultipathSentPacketManager13SetFromConfigERKNS_10QuicConfigE(ptr noundef nonnull readonly align 8 captures(none) dereferenceable(40) %0, ptr noundef nonnull align 8 dereferenceable(600) %1) unnamed_addr #0 align 2 {
  %3 = alloca %"struct.net::QuicMultipathSentPacketManager::PathSentPacketManagerInfo", align 8
  %4 = getelementptr inbounds nuw i8, ptr %0, i64 8
  %5 = load ptr, ptr %4, align 8, !tbaa !20
  %6 = getelementptr inbounds nuw i8, ptr %0, i64 16
  %7 = load ptr, ptr %6, align 8, !tbaa !20
  %.not78 = icmp eq ptr %5, %7
  br i1 %.not78, label %._crit_edge, label %.lr.ph

._crit_edge:                                      ; preds = %13, %2
  ret void

.lr.ph:                                           ; preds = %2, %13
  %.sroa.04.09 = phi ptr [ %14, %13 ], [ %5, %2 ]
  call void @llvm.lifetime.start.p0(i64 16, ptr nonnull %3) #17
  call void @_ZN3net30QuicMultipathSentPacketManager25PathSentPacketManagerInfoC1ERKS1_(ptr noundef nonnull align 8 dereferenceable(12) %3, ptr noundef nonnull align 8 dereferenceable(12) %.sroa.04.09)
  %8 = load ptr, ptr %3, align 8, !tbaa !21
  %.not = icmp eq ptr %8, null
  br i1 %.not, label %13, label %9

9:                                                ; preds = %.lr.ph
  %10 = load ptr, ptr %8, align 8, !tbaa !3
  %11 = getelementptr inbounds nuw i8, ptr %10, i64 16
  %12 = load ptr, ptr %11, align 8
  call void %12(ptr noundef nonnull align 8 dereferenceable(8) %8, ptr noundef nonnull align 8 dereferenceable(600) %1)
  br label %13

13:                                               ; preds = %9, %.lr.ph
  call void @llvm.lifetime.end.p0(i64 16, ptr nonnull %3) #17
  %14 = getelementptr inbounds nuw i8, ptr %.sroa.04.09, i64 16
  %.not7 = icmp eq ptr %14, %7
  br i1 %.not7, label %._crit_edge, label %.lr.ph
}